target datalayout = "e-m:e-p270:32:32-p271:32:32-p272:64:64-i64:64-i128:128-f80:128-n8:16:32:64-S128"
target triple = "x86_64-pc-linux-gnu"

%"class.lean::mpz" = type { [1 x %struct.__mpz_struct] }
%struct.__mpz_struct = type { i32, i32, ptr }

@_ZN4lean3mpzC1Ev = unnamed_addr alias void (ptr), ptr @_ZN4lean3mpzC2Ev
@_ZN4lean3mpzD1Ev = unnamed_addr alias void (ptr), ptr @_ZN4lean3mpzD2Ev

; Function Attrs: mustprogress uwtable
define void @_ZN4lean3mpz4emodERKS0_S2_(ptr dead_on_unwind noalias writable sret(%"class.lean::mpz") align 8 %0, ptr noundef nonnull align 8 dereferenceable(16) %1, ptr noundef nonnull align 8 dereferenceable(16) %2) #2 align 2 personality ptr @__gxx_personality_v0 {
  %4 = alloca ptr, align 8
  %5 = alloca ptr, align 8
  %6 = alloca ptr, align 8
  %7 = alloca i1, align 1
  %8 = alloca ptr, align 8
  %9 = alloca i32, align 4
  store ptr %0, ptr %4, align 8
  store ptr %1, ptr %5, align 8, !tbaa !3
  store ptr %2, ptr %6, align 8, !tbaa !3
  store i1 false, ptr %7, align 1
  call void @_ZN4lean3mpzC1Ev(ptr noundef nonnull align 8 dereferenceable(16) %0)
  %10 = getelementptr inbounds nuw %"class.lean::mpz", ptr %0, i32 0, i32 0
  %11 = getelementptr inbounds [1 x %struct.__mpz_struct], ptr %10, i64 0, i64 0
  %12 = load ptr, ptr %5, align 8, !tbaa !3
  %13 = getelementptr inbounds nuw %"class.lean::mpz", ptr %12, i32 0, i32 0
  %14 = getelementptr inbounds [1 x %struct.__mpz_struct], ptr %13, i64 0, i64 0
  %15 = load ptr, ptr %6, align 8, !tbaa !3
  %16 = getelementptr inbounds nuw %"class.lean::mpz", ptr %15, i32 0, i32 0
  %17 = getelementptr inbounds [1 x %struct.__mpz_struct], ptr %16, i64 0, i64 0
  invoke void @__gmpz_tdiv_r(ptr noundef %11, ptr noundef %14, ptr noundef %17)
          to label %18 unwind label %63

18:                                               ; preds = %3
  %19 = getelementptr inbounds nuw %"class.lean::mpz", ptr %0, i32 0, i32 0
  %20 = getelementptr inbounds [1 x %struct.__mpz_struct], ptr %19, i64 0, i64 0
  %21 = getelementptr inbounds nuw %struct.__mpz_struct, ptr %20, i32 0, i32 1
  %22 = load i32, ptr %21, align 4, !tbaa !15
  %23 = icmp slt i32 %22, 0
  br i1 %23, label %24, label %25

24:                                               ; preds = %18
  br label %32

25:                                               ; preds = %18
  %26 = getelementptr inbounds nuw %"class.lean::mpz", ptr %0, i32 0, i32 0
  %27 = getelementptr inbounds [1 x %struct.__mpz_struct], ptr %26, i64 0, i64 0
  %28 = getelementptr inbounds nuw %struct.__mpz_struct, ptr %27, i32 0, i32 1
  %29 = load i32, ptr %28, align 4, !tbaa !15
  %30 = icmp sgt i32 %29, 0
  %31 = zext i1 %30 to i32
  br label %32

32:                                               ; preds = %25, %24
  %33 = phi i32 [ -1, %24 ], [ %31, %25 ]
  %34 = icmp slt i32 %33, 0
  br i1 %34, label %35, label %77

35:                                               ; preds = %32
  %36 = load ptr, ptr %6, align 8, !tbaa !3
  %37 = getelementptr inbounds nuw %"class.lean::mpz", ptr %36, i32 0, i32 0
  %38 = getelementptr inbounds [1 x %struct.__mpz_struct], ptr %37, i64 0, i64 0
  %39 = getelementptr inbounds nuw %struct.__mpz_struct, ptr %38, i32 0, i32 1
  %40 = load i32, ptr %39, align 4, !tbaa !15
  %41 = icmp slt i32 %40, 0
  br i1 %41, label %42, label %43

42:                                               ; preds = %35
  br label %51

43:                                               ; preds = %35
  %44 = load ptr, ptr %6, align 8, !tbaa !3
  %45 = getelementptr inbounds nuw %"class.lean::mpz", ptr %44, i32 0, i32 0
  %46 = getelementptr inbounds [1 x %struct.__mpz_struct], ptr %45, i64 0, i64 0
  %47 = getelementptr inbounds nuw %struct.__mpz_struct, ptr %46, i32 0, i32 1
  %48 = load i32, ptr %47, align 4, !tbaa !15
  %49 = icmp sgt i32 %48, 0
  %50 = zext i1 %49 to i32
  br label %51

51:                                               ; preds = %43, %42
  %52 = phi i32 [ -1, %42 ], [ %50, %43 ]
  %53 = icmp sgt i32 %52, 0
  br i1 %53, label %54, label %67

54:                                               ; preds = %51
  %55 = getelementptr inbounds nuw %"class.lean::mpz", ptr %0, i32 0, i32 0
  %56 = getelementptr inbounds [1 x %struct.__mpz_struct], ptr %55, i64 0, i64 0
  %57 = getelementptr inbounds nuw %"class.lean::mpz", ptr %0, i32 0, i32 0
  %58 = getelementptr inbounds [1 x %struct.__mpz_struct], ptr %57, i64 0, i64 0
  %59 = load ptr, ptr %6, align 8, !tbaa !3
  %60 = getelementptr inbounds nuw %"class.lean::mpz", ptr %59, i32 0, i32 0
  %61 = getelementptr inbounds [1 x %struct.__mpz_struct], ptr %60, i64 0, i64 0
  invoke void @__gmpz_add(ptr noundef %56, ptr noundef %58, ptr noundef %61)
          to label %62 unwind label %63

62:                                               ; preds = %54
  br label %76

63:                                               ; preds = %67, %54, %3
  %64 = landingpad { ptr, i32 }
          cleanup
  %65 = extractvalue { ptr, i32 } %64, 0
  store ptr %65, ptr %8, align 8
  %66 = extractvalue { ptr, i32 } %64, 1
  store i32 %66, ptr %9, align 4
  call void @_ZN4lean3mpzD1Ev(ptr noundef nonnull align 8 dereferenceable(16) %0) #17
  br label %81

67:                                               ; preds = %51
  %68 = getelementptr inbounds nuw %"class.lean::mpz", ptr %0, i32 0, i32 0
  %69 = getelementptr inbounds [1 x %struct.__mpz_struct], ptr %68, i64 0, i64 0
  %70 = getelementptr inbounds nuw %"class.lean::mpz", ptr %0, i32 0, i32 0
  %71 = getelementptr inbounds [1 x %struct.__mpz_struct], ptr %70, i64 0, i64 0
  %72 = load ptr, ptr %6, align 8, !tbaa !3
  %73 = getelementptr inbounds nuw %"class.lean::mpz", ptr %72, i32 0, i32 0
  %74 = getelementptr inbounds [1 x %struct.__mpz_struct], ptr %73, i64 0, i64 0
  invoke void @__gmpz_sub(ptr noundef %69, ptr noundef %71, ptr noundef %74)
          to label %75 unwind label %63

75:                                               ; preds = %67
  br label %76

76:                                               ; preds = %75, %62
  br label %77

77:                                               ; preds = %76, %32
  store i1 true, ptr %7, align 1
  %78 = load i1, ptr %7, align 1
  br i1 %78, label %80, label %79

79:                                               ; preds = %77
  call void @_ZN4lean3mpzD1Ev(ptr noundef nonnull align 8 dereferenceable(16) %0) #17
  br label %80

80:                                               ; preds = %79, %77
  ret void

81:                                               ; preds = %63
  %82 = load ptr, ptr %8, align 8
  %83 = load i32, ptr %9, align 4
  %84 = insertvalue { ptr, i32 } poison, ptr %82, 0
  %85 = insertvalue { ptr, i32 } %84, i32 %83, 1
  resume { ptr, i32 } %85
}