; Function Attrs: mustprogress uwtable
define void @_ZN4lean3mpz4emodERKS0_S2_(ptr dead_on_unwind noalias writable sret(%"class.lean::mpz") align 8 %0, ptr noundef nonnull align 8 dereferenceable(16) %1, ptr noundef nonnull align 8 dereferenceable(16) %2) local_unnamed_addr #2 align 2 personality ptr @__gxx_personality_v0 {
  tail call void @_ZN4lean3mpzC1Ev(ptr noundef nonnull align 8 dereferenceable(16) %0)
  invoke void @__gmpz_tdiv_r(ptr noundef nonnull %0, ptr noundef nonnull %1, ptr noundef nonnull %2)
          to label %4 unwind label %12

4:                                                ; preds = %3
  %5 = getelementptr inbounds nuw i8, ptr %0, i64 4
  %6 = load i32, ptr %5, align 4, !tbaa !3
  %7 = icmp slt i32 %6, 0
  br i1 %7, label %8, label %15

8:                                                ; preds = %4
  %9 = getelementptr inbounds nuw i8, ptr %2, i64 4
  %10 = load i32, ptr %9, align 4, !tbaa !3
  %spec.select = icmp sgt i32 %10, 0
  br i1 %spec.select, label %11, label %14

11:                                               ; preds = %8
  invoke void @__gmpz_add(ptr noundef nonnull %0, ptr noundef nonnull %0, ptr noundef nonnull %2)
          to label %15 unwind label %12

12:                                               ; preds = %14, %11, %3
  %13 = landingpad { ptr, i32 }
          cleanup
  tail call void @_ZN4lean3mpzD1Ev(ptr noundef nonnull align 8 dereferenceable(16) %0) #18
  resume { ptr, i32 } %13

14:                                               ; preds = %8
  invoke void @__gmpz_sub(ptr noundef nonnull %0, ptr noundef nonnull %0, ptr noundef nonnull %2)
          to label %15 unwind label %12

15:                                               ; preds = %4, %14, %11
  ret void
}